target datalayout = "e-m:e-p270:32:32-p271:32:32-p272:64:64-i64:64-i128:128-f80:128-n8:16:32:64-S128"
target triple = "x86_64-pc-linux-gnu"

@UseJVMCICompiler = external global i8, align 1
@TieredCompilation = external global i8, align 1
@TieredStopAtLevel = external global i64, align 8
@_ZN9Arguments5_modeE = external global i32, align 4
@_ZN19CompilationModeFlag5_modeE = external global i32, align 4

; Function Attrs: mustprogress nounwind uwtable
define linkonce_odr hidden noundef zeroext i1 @_ZN14CompilerConfig22is_jvmci_compiler_onlyEv() #1 comdat align 2 {
  %1 = alloca i1, align 1
  %2 = alloca i8, align 1
  %3 = alloca i8, align 1
  %4 = alloca i8, align 1
  %5 = call noundef zeroext i1 @_ZN14CompilerConfig25is_jvmci_compiler_enabledEv()
  br i1 %5, label %6, label %20

6:                                                ; preds = %0
  store i8 0, ptr %2, align 1
  %7 = call noundef zeroext i1 @_ZN19CompilationModeFlag9high_onlyEv()
  %8 = zext i1 %7 to i8
  store i8 %8, ptr %3, align 1
  %9 = load i8, ptr @TieredCompilation, align 1
  %10 = trunc i8 %9 to i1
  %11 = xor i1 %10, true
  %12 = zext i1 %11 to i8
  store i8 %12, ptr %4, align 1
  %13 = load i8, ptr %3, align 1
  %14 = trunc i8 %13 to i1
  br i1 %14, label %18, label %15

15:                                               ; preds = %6
  %16 = load i8, ptr %4, align 1
  %17 = trunc i8 %16 to i1
  br label %18

18:                                               ; preds = %15, %6
  %19 = phi i1 [ true, %6 ], [ %17, %15 ]
  store i1 %19, ptr %1, align 1
  br label %21

20:                                               ; preds = %0
  store i1 false, ptr %1, align 1
  br label %21

21:                                               ; preds = %20, %18
  %22 = load i1, ptr %1, align 1
  ret i1 %22
}

; Function Attrs: mustprogress nounwind uwtable
define linkonce_odr hidden noundef zeroext i1 @_ZN14CompilerConfig10is_c2_onlyEv() #1 comdat align 2 {
  %1 = alloca i1, align 1
  %2 = alloca i8, align 1
  %3 = alloca i8, align 1
  %4 = alloca i8, align 1
  %5 = call noundef zeroext i1 @_ZN14CompilerConfig13is_c2_enabledEv()
  br i1 %5, label %6, label %20

6:                                                ; preds = %0
  store i8 0, ptr %2, align 1
  %7 = call noundef zeroext i1 @_ZN19CompilationModeFlag9high_onlyEv()
  %8 = zext i1 %7 to i8
  store i8 %8, ptr %3, align 1
  %9 = load i8, ptr @TieredCompilation, align 1
  %10 = trunc i8 %9 to i1
  %11 = xor i1 %10, true
  %12 = zext i1 %11 to i8
  store i8 %12, ptr %4, align 1
  %13 = load i8, ptr %3, align 1
  %14 = trunc i8 %13 to i1
  br i1 %14, label %18, label %15

15:                                               ; preds = %6
  %16 = load i8, ptr %4, align 1
  %17 = trunc i8 %16 to i1
  br label %18

18:                                               ; preds = %15, %6
  %19 = phi i1 [ true, %6 ], [ %17, %15 ]
  store i1 %19, ptr %1, align 1
  br label %21

20:                                               ; preds = %0
  store i1 false, ptr %1, align 1
  br label %21

21:                                               ; preds = %20, %18
  %22 = load i1, ptr %1, align 1
  ret i1 %22
}

; Function Attrs: mustprogress nounwind uwtable
define linkonce_odr hidden noundef zeroext i1 @_ZN14CompilerConfig17is_jvmci_compilerEv() #1 comdat align 2 {
  %1 = load i8, ptr @UseJVMCICompiler, align 1
  %2 = trunc i8 %1 to i1
  ret i1 %2
}

; Function Attrs: mustprogress nounwind uwtable
define linkonce_odr hidden noundef i32 @_ZN9Arguments4modeEv() #1 comdat align 2 {
  %1 = load i32, ptr @_ZN9Arguments5_modeE, align 4
  ret i32 %1
}

; Function Attrs: mustprogress nounwind uwtable
define linkonce_odr hidden noundef zeroext i1 @_ZN14CompilerConfig10is_c1_onlyEv() #1 comdat align 2 {
  %1 = alloca i1, align 1
  %2 = alloca i8, align 1
  %3 = alloca i8, align 1
  %4 = alloca i8, align 1
  %5 = call noundef zeroext i1 @_ZN14CompilerConfig19is_interpreter_onlyEv()
  br i1 %5, label %27, label %6

6:                                                ; preds = %0
  store i8 0, ptr %2, align 1
  %7 = load i8, ptr @TieredCompilation, align 1
  %8 = trunc i8 %7 to i1
  br i1 %8, label %9, label %15

9:                                                ; preds = %6
  %10 = load i64, ptr @TieredStopAtLevel, align 8
  %11 = icmp sge i64 %10, 1
  br i1 %11, label %12, label %15

12:                                               ; preds = %9
  %13 = load i64, ptr @TieredStopAtLevel, align 8
  %14 = icmp slt i64 %13, 4
  br label %15

15:                                               ; preds = %12, %9, %6
  %16 = phi i1 [ false, %9 ], [ false, %6 ], [ %14, %12 ]
  %17 = zext i1 %16 to i8
  store i8 %17, ptr %3, align 1
  %18 = call noundef zeroext i1 @_ZN19CompilationModeFlag10quick_onlyEv()
  %19 = zext i1 %18 to i8
  store i8 %19, ptr %4, align 1
  %20 = load i8, ptr %3, align 1
  %21 = trunc i8 %20 to i1
  br i1 %21, label %25, label %22

22:                                               ; preds = %15
  %23 = load i8, ptr %4, align 1
  %24 = trunc i8 %23 to i1
  br label %25

25:                                               ; preds = %22, %15
  %26 = phi i1 [ true, %15 ], [ %24, %22 ]
  store i1 %26, ptr %1, align 1
  br label %28

27:                                               ; preds = %0
  store i1 false, ptr %1, align 1
  br label %28

28:                                               ; preds = %27, %25
  %29 = load i1, ptr %1, align 1
  ret i1 %29
}

; Function Attrs: mustprogress nounwind uwtable
define linkonce_odr hidden noundef zeroext i1 @_ZN14CompilerConfig28is_c2_or_jvmci_compiler_onlyEv() #1 comdat align 2 {
  %1 = call noundef zeroext i1 @_ZN14CompilerConfig10is_c2_onlyEv()
  br i1 %1, label %4, label %2

2:                                                ; preds = %0
  %3 = call noundef zeroext i1 @_ZN14CompilerConfig22is_jvmci_compiler_onlyEv()
  br label %4

4:                                                ; preds = %2, %0
  %5 = phi i1 [ true, %0 ], [ %3, %2 ]
  ret i1 %5
}

; Function Attrs: mustprogress nounwind uwtable
define linkonce_odr hidden noundef zeroext i1 @_ZN14CompilerConfig25is_jvmci_compiler_enabledEv() #1 comdat align 2 {
  %1 = call noundef zeroext i1 @_ZN14CompilerConfig17is_jvmci_compilerEv()
  br i1 %1, label %2, label %7

2:                                                ; preds = %0
  %3 = call noundef zeroext i1 @_ZN14CompilerConfig19is_interpreter_onlyEv()
  br i1 %3, label %7, label %4

4:                                                ; preds = %2
  %5 = call noundef zeroext i1 @_ZN14CompilerConfig10is_c1_onlyEv()
  %6 = xor i1 %5, true
  br label %7

7:                                                ; preds = %4, %2, %0
  %8 = phi i1 [ false, %2 ], [ false, %0 ], [ %6, %4 ]
  ret i1 %8
}

; Function Attrs: mustprogress nounwind uwtable
define linkonce_odr hidden noundef zeroext i1 @_ZN14CompilerConfig13is_c2_enabledEv() #1 comdat align 2 {
  %1 = call noundef zeroext i1 @_ZN14CompilerConfig19is_interpreter_onlyEv()
  br i1 %1, label %7, label %2

2:                                                ; preds = %0
  %3 = call noundef zeroext i1 @_ZN14CompilerConfig10is_c1_onlyEv()
  br i1 %3, label %7, label %4

4:                                                ; preds = %2
  %5 = call noundef zeroext i1 @_ZN14CompilerConfig17is_jvmci_compilerEv()
  %6 = xor i1 %5, true
  br label %7

7:                                                ; preds = %4, %2, %0
  %8 = phi i1 [ false, %2 ], [ false, %0 ], [ %6, %4 ]
  ret i1 %8
}

; Function Attrs: mustprogress nounwind uwtable
define linkonce_odr hidden noundef zeroext i1 @_ZN9Arguments19is_interpreter_onlyEv() #1 comdat align 2 {
  %1 = call noundef i32 @_ZN9Arguments4modeEv()
  %2 = icmp eq i32 %1, 0
  ret i1 %2
}

; Function Attrs: mustprogress nounwind uwtable
define linkonce_odr hidden noundef zeroext i1 @_ZN19CompilationModeFlag24high_only_quick_internalEv() #1 comdat align 2 {
  %1 = load i32, ptr @_ZN19CompilationModeFlag5_modeE, align 4
  %2 = icmp eq i32 %1, 3
  ret i1 %2
}

; Function Attrs: mustprogress nounwind uwtable
define linkonce_odr hidden noundef zeroext i1 @_ZN19CompilationModeFlag9high_onlyEv() #1 comdat align 2 {
  %1 = load i32, ptr @_ZN19CompilationModeFlag5_modeE, align 4
  %2 = icmp eq i32 %1, 2
  ret i1 %2
}

; Function Attrs: mustprogress nounwind uwtable
define linkonce_odr hidden noundef zeroext i1 @_ZN19CompilationModeFlag10quick_onlyEv() #1 comdat align 2 {
  %1 = load i32, ptr @_ZN19CompilationModeFlag5_modeE, align 4
  %2 = icmp eq i32 %1, 1
  ret i1 %2
}

; Function Attrs: mustprogress nounwind uwtable
define linkonce_odr hidden noundef zeroext i1 @_ZN19CompilationModeFlag6normalEv() #1 comdat align 2 {
  %1 = load i32, ptr @_ZN19CompilationModeFlag5_modeE, align 4
  %2 = icmp eq i32 %1, 0
  ret i1 %2
}

; Function Attrs: mustprogress nounwind uwtable
define linkonce_odr hidden noundef signext i8 @_Z4MIN2I9CompLevelET_S1_S1_(i8 noundef signext %0, i8 noundef signext %1) #1 comdat {
  %3 = alloca i8, align 1
  %4 = alloca i8, align 1
  store i8 %0, ptr %3, align 1
  store i8 %1, ptr %4, align 1
  %5 = load i8, ptr %3, align 1
  %6 = sext i8 %5 to i32
  %7 = load i8, ptr %4, align 1
  %8 = sext i8 %7 to i32
  %9 = icmp slt i32 %6, %8
  br i1 %9, label %10, label %12

10:                                               ; preds = %2
  %11 = load i8, ptr %3, align 1
  br label %14

12:                                               ; preds = %2
  %13 = load i8, ptr %4, align 1
  br label %14

14:                                               ; preds = %12, %10
  %15 = phi i8 [ %11, %10 ], [ %13, %12 ]
  ret i8 %15
}

; Function Attrs: mustprogress nounwind uwtable
define linkonce_odr hidden noundef zeroext i1 @_ZN14CompilerConfig17is_c1_simple_onlyEv() #1 comdat align 2 {
  %1 = alloca i1, align 1
  %2 = alloca i8, align 1
  %3 = alloca i8, align 1
  %4 = alloca i8, align 1
  %5 = call noundef zeroext i1 @_ZN14CompilerConfig10is_c1_onlyEv()
  br i1 %5, label %6, label %31

6:                                                ; preds = %0
  %7 = load i8, ptr @TieredCompilation, align 1
  %8 = trunc i8 %7 to i1
  br i1 %8, label %9, label %12

9:                                                ; preds = %6
  %10 = load i64, ptr @TieredStopAtLevel, align 8
  %11 = icmp eq i64 %10, 1
  br label %12

12:                                               ; preds = %9, %6
  %13 = phi i1 [ false, %6 ], [ %11, %9 ]
  %14 = zext i1 %13 to i8
  store i8 %14, ptr %2, align 1
  %15 = call noundef zeroext i1 @_ZN19CompilationModeFlag10quick_onlyEv()
  %16 = zext i1 %15 to i8
  store i8 %16, ptr %3, align 1
  %17 = load i8, ptr @TieredCompilation, align 1
  %18 = trunc i8 %17 to i1
  %19 = xor i1 %18, true
  %20 = zext i1 %19 to i8
  store i8 %20, ptr %4, align 1
  %21 = load i8, ptr %2, align 1
  %22 = trunc i8 %21 to i1
  br i1 %22, label %29, label %23

23:                                               ; preds = %12
  %24 = load i8, ptr %3, align 1
  %25 = trunc i8 %24 to i1
  br i1 %25, label %29, label %26

26:                                               ; preds = %23
  %27 = load i8, ptr %4, align 1
  %28 = trunc i8 %27 to i1
  br label %29

29:                                               ; preds = %26, %23, %12
  %30 = phi i1 [ true, %23 ], [ true, %12 ], [ %28, %26 ]
  store i1 %30, ptr %1, align 1
  br label %32

31:                                               ; preds = %0
  store i1 false, ptr %1, align 1
  br label %32

32:                                               ; preds = %31, %29
  %33 = load i1, ptr %1, align 1
  ret i1 %33
}

; Function Attrs: mustprogress nounwind uwtable
define linkonce_odr hidden noundef zeroext i1 @_ZN14CompilerConfig13is_c1_enabledEv() #1 comdat align 2 {
  %1 = call noundef zeroext i1 @_ZN14CompilerConfig19is_interpreter_onlyEv()
  br i1 %1, label %5, label %2

2:                                                ; preds = %0
  %3 = call noundef zeroext i1 @_ZN14CompilerConfig28is_c2_or_jvmci_compiler_onlyEv()
  %4 = xor i1 %3, true
  br label %5

5:                                                ; preds = %2, %0
  %6 = phi i1 [ false, %0 ], [ %4, %2 ]
  ret i1 %6
}

; Function Attrs: mustprogress nounwind uwtable
define linkonce_odr hidden noundef zeroext i1 @_ZN14CompilerConfig31is_c2_or_jvmci_compiler_enabledEv() #1 comdat align 2 {
  %1 = call noundef zeroext i1 @_ZN14CompilerConfig13is_c2_enabledEv()
  br i1 %1, label %4, label %2

2:                                                ; preds = %0
  %3 = call noundef zeroext i1 @_ZN14CompilerConfig25is_jvmci_compiler_enabledEv()
  br label %4

4:                                                ; preds = %2, %0
  %5 = phi i1 [ true, %0 ], [ %3, %2 ]
  ret i1 %5
}

; Function Attrs: mustprogress nounwind uwtable
define linkonce_odr hidden noundef zeroext i1 @_ZN14CompilerConfig19is_interpreter_onlyEv() #1 comdat align 2 {
  %1 = call noundef zeroext i1 @_ZN9Arguments19is_interpreter_onlyEv()
  br i1 %1, label %5, label %2

2:                                                ; preds = %0
  %3 = load i64, ptr @TieredStopAtLevel, align 8
  %4 = icmp eq i64 %3, 0
  br label %5

5:                                                ; preds = %2, %0
  %6 = phi i1 [ true, %0 ], [ %4, %2 ]
  ret i1 %6
}

; Function Attrs: mustprogress nounwind uwtable
define hidden noundef signext i8 @_ZN17CompilationPolicy21highest_compile_levelEv() #1 align 2 {
  %1 = alloca i8, align 1
  store i8 0, ptr %1, align 1
  %2 = call noundef zeroext i1 @_ZN14CompilerConfig19is_interpreter_onlyEv()
  br i1 %2, label %15, label %3

3:                                                ; preds = %0
  %4 = call noundef zeroext i1 @_ZN14CompilerConfig31is_c2_or_jvmci_compiler_enabledEv()
  br i1 %4, label %5, label %6

5:                                                ; preds = %3
  store i8 4, ptr %1, align 1
  br label %14

6:                                                ; preds = %3
  %7 = call noundef zeroext i1 @_ZN14CompilerConfig13is_c1_enabledEv()
  br i1 %7, label %8, label %13

8:                                                ; preds = %6
  %9 = call noundef zeroext i1 @_ZN14CompilerConfig17is_c1_simple_onlyEv()
  br i1 %9, label %10, label %11

10:                                               ; preds = %8
  store i8 1, ptr %1, align 1
  br label %12

11:                                               ; preds = %8
  store i8 3, ptr %1, align 1
  br label %12

12:                                               ; preds = %11, %10
  br label %13

13:                                               ; preds = %12, %6
  br label %14

14:                                               ; preds = %13, %5
  br label %15

15:                                               ; preds = %14, %0
  %16 = load i8, ptr @TieredCompilation, align 1
  %17 = trunc i8 %16 to i1
  br i1 %17, label %18, label %23

18:                                               ; preds = %15
  %19 = load i8, ptr %1, align 1
  %20 = load i64, ptr @TieredStopAtLevel, align 8
  %21 = trunc i64 %20 to i8
  %22 = call noundef signext i8 @_Z4MIN2I9CompLevelET_S1_S1_(i8 noundef signext %19, i8 noundef signext %21)
  store i8 %22, ptr %1, align 1
  br label %23

23:                                               ; preds = %18, %15
  %24 = call noundef zeroext i1 @_ZN19CompilationModeFlag6normalEv()
  br i1 %24, label %72, label %25

25:                                               ; preds = %23
  %26 = call noundef zeroext i1 @_ZN19CompilationModeFlag10quick_onlyEv()
  br i1 %26, label %27, label %41

27:                                               ; preds = %25
  %28 = load i8, ptr %1, align 1
  %29 = sext i8 %28 to i32
  %30 = icmp eq i32 %29, 2
  br i1 %30, label %39, label %31

31:                                               ; preds = %27
  %32 = load i8, ptr %1, align 1
  %33 = sext i8 %32 to i32
  %34 = icmp eq i32 %33, 3
  br i1 %34, label %39, label %35

35:                                               ; preds = %31
  %36 = load i8, ptr %1, align 1
  %37 = sext i8 %36 to i32
  %38 = icmp eq i32 %37, 4
  br i1 %38, label %39, label %40

39:                                               ; preds = %35, %31, %27
  store i8 1, ptr %1, align 1
  br label %40

40:                                               ; preds = %39, %35
  br label %71

41:                                               ; preds = %25
  %42 = call noundef zeroext i1 @_ZN19CompilationModeFlag9high_onlyEv()
  br i1 %42, label %43, label %57

43:                                               ; preds = %41
  %44 = load i8, ptr %1, align 1
  %45 = sext i8 %44 to i32
  %46 = icmp eq i32 %45, 1
  br i1 %46, label %55, label %47

47:                                               ; preds = %43
  %48 = load i8, ptr %1, align 1
  %49 = sext i8 %48 to i32
  %50 = icmp eq i32 %49, 2
  br i1 %50, label %55, label %51

51:                                               ; preds = %47
  %52 = load i8, ptr %1, align 1
  %53 = sext i8 %52 to i32
  %54 = icmp eq i32 %53, 3
  br i1 %54, label %55, label %56

55:                                               ; preds = %51, %47, %43
  store i8 0, ptr %1, align 1
  br label %56

56:                                               ; preds = %55, %51
  br label %70

57:                                               ; preds = %41
  %58 = call noundef zeroext i1 @_ZN19CompilationModeFlag24high_only_quick_internalEv()
  br i1 %58, label %59, label %69

59:                                               ; preds = %57
  %60 = load i8, ptr %1, align 1
  %61 = sext i8 %60 to i32
  %62 = icmp eq i32 %61, 2
  br i1 %62, label %67, label %63

63:                                               ; preds = %59
  %64 = load i8, ptr %1, align 1
  %65 = sext i8 %64 to i32
  %66 = icmp eq i32 %65, 3
  br i1 %66, label %67, label %68

67:                                               ; preds = %63, %59
  store i8 1, ptr %1, align 1
  br label %68

68:                                               ; preds = %67, %63
  br label %69

69:                                               ; preds = %68, %57
  br label %70

70:                                               ; preds = %69, %56
  br label %71

71:                                               ; preds = %70, %40
  br label %72

72:                                               ; preds = %71, %23
  %73 = load i8, ptr %1, align 1
  ret i8 %73
}