; Function Attrs: mustprogress nofree norecurse nosync nounwind willreturn memory(read, argmem: none, inaccessiblemem: none) uwtable
define hidden noundef signext i8 @_ZN17CompilationPolicy21highest_compile_levelEv() local_unnamed_addr #1 align 2 {
  %1 = load i32, ptr @_ZN9Arguments5_modeE, align 4
  %2 = icmp eq i32 %1, 0
  %3 = load i64, ptr @TieredStopAtLevel, align 8
  %4 = icmp eq i64 %3, 0
  %5 = select i1 %2, i1 true, i1 %4
  %.pre = load i8, ptr @TieredCompilation, align 1
  %.pre34 = load i32, ptr @_ZN19CompilationModeFlag5_modeE, align 4
  %.pre35 = trunc i8 %.pre to i1
  br i1 %5, label %_ZN14CompilerConfig17is_c1_simple_onlyEv.exit.thread29, label %_ZN14CompilerConfig31is_c2_or_jvmci_compiler_enabledEv.exit

_ZN14CompilerConfig31is_c2_or_jvmci_compiler_enabledEv.exit: ; preds = %0
  %6 = add i64 %3, -1
  %7 = icmp ult i64 %6, 3
  %spec.select.i.i.i = select i1 %.pre35, i1 %7, i1 false
  %8 = icmp eq i32 %.pre34, 1
  %9 = or i1 %spec.select.i.i.i, %8
  br i1 %9, label %_ZN14CompilerConfig10is_c1_onlyEv.exit.i, label %_ZN14CompilerConfig17is_c1_simple_onlyEv.exit.thread29

_ZN14CompilerConfig10is_c1_onlyEv.exit.i:         ; preds = %_ZN14CompilerConfig31is_c2_or_jvmci_compiler_enabledEv.exit
  %10 = icmp eq i64 %3, 1
  %11 = select i1 %.pre35, i1 %10, i1 false
  br i1 %11, label %_ZN14CompilerConfig17is_c1_simple_onlyEv.exit.thread, label %_ZN14CompilerConfig17is_c1_simple_onlyEv.exit

_ZN14CompilerConfig17is_c1_simple_onlyEv.exit:    ; preds = %_ZN14CompilerConfig10is_c1_onlyEv.exit.i
  %12 = xor i1 %.pre35, true
  %spec.select.i26 = or i1 %8, %12
  %cond.fr = freeze i1 %spec.select.i26
  br i1 %cond.fr, label %_ZN14CompilerConfig17is_c1_simple_onlyEv.exit.thread, label %_ZN14CompilerConfig17is_c1_simple_onlyEv.exit.thread29

_ZN14CompilerConfig17is_c1_simple_onlyEv.exit.thread: ; preds = %_ZN14CompilerConfig10is_c1_onlyEv.exit.i, %_ZN14CompilerConfig17is_c1_simple_onlyEv.exit
  br label %_ZN14CompilerConfig17is_c1_simple_onlyEv.exit.thread29

_ZN14CompilerConfig17is_c1_simple_onlyEv.exit.thread29: ; preds = %0, %_ZN14CompilerConfig17is_c1_simple_onlyEv.exit.thread, %_ZN14CompilerConfig17is_c1_simple_onlyEv.exit, %_ZN14CompilerConfig31is_c2_or_jvmci_compiler_enabledEv.exit
  %.0 = phi i8 [ 1, %_ZN14CompilerConfig17is_c1_simple_onlyEv.exit.thread ], [ 3, %_ZN14CompilerConfig17is_c1_simple_onlyEv.exit ], [ 4, %_ZN14CompilerConfig31is_c2_or_jvmci_compiler_enabledEv.exit ], [ 0, %0 ]
  %13 = trunc i64 %3 to i8
  %14 = tail call i8 @llvm.smin.i8(i8 %.0, i8 %13)
  %.1 = select i1 %.pre35, i8 %14, i8 %.0
  switch i32 %.pre34, label %22 [
    i32 3, label %20
    i32 1, label %15
    i32 2, label %18
  ]

15:                                               ; preds = %_ZN14CompilerConfig17is_c1_simple_onlyEv.exit.thread29
  %16 = and i8 %.1, -2
  %or.cond = icmp eq i8 %16, 2
  %17 = icmp eq i8 %.1, 4
  %or.cond5 = or i1 %17, %or.cond
  %spec.store.select = select i1 %or.cond5, i8 1, i8 %.1
  br label %22

18:                                               ; preds = %_ZN14CompilerConfig17is_c1_simple_onlyEv.exit.thread29
  %19 = add i8 %.1, -1
  %or.cond11 = icmp ult i8 %19, 3
  %spec.store.select15 = select i1 %or.cond11, i8 0, i8 %.1
  br label %22

20:                                               ; preds = %_ZN14CompilerConfig17is_c1_simple_onlyEv.exit.thread29
  %21 = and i8 %.1, -2
  %or.cond14 = icmp eq i8 %21, 2
  %spec.store.select16 = select i1 %or.cond14, i8 1, i8 %.1
  br label %22

22:                                               ; preds = %_ZN14CompilerConfig17is_c1_simple_onlyEv.exit.thread29, %20, %18, %15
  %.2 = phi i8 [ %spec.store.select, %15 ], [ %spec.store.select15, %18 ], [ %spec.store.select16, %20 ], [ %.1, %_ZN14CompilerConfig17is_c1_simple_onlyEv.exit.thread29 ]
  ret i8 %.2
}